; Function Attrs: mustprogress nofree norecurse nounwind willreturn uwtable
define void @_ZN9grpc_core21promise_filter_detail12BaseCallData18MakeNonOwningWakerEv(ptr noalias nocapture writeonly sret(%"class.grpc_core::Waker") align 8 %agg.result, ptr noundef nonnull align 8 dereferenceable(120) %this) unnamed_addr #12 align 2 {
entry:
  tail call void @llvm.experimental.noalias.scope.decl(metadata !10)
  %call_stack_.i = getelementptr inbounds i8, ptr %this, i64 16
  %0 = load ptr, ptr %call_stack_.i, align 8, !noalias !10
  %1 = atomicrmw add ptr %0, i64 1 monotonic, align 8, !noalias !10
  %add.ptr.i = getelementptr inbounds i8, ptr %this, i64 8
  store ptr %add.ptr.i, ptr %agg.result, align 8, !alias.scope !10
  %wakeup_mask3.i.i = getelementptr inbounds i8, ptr %agg.result, i64 8
  store i16 0, ptr %wakeup_mask3.i.i, align 8, !alias.scope !10
  ret void
}